(dp1
S'loss'
p2
(lp3
cnumpy.core.multiarray
scalar
p4
(cnumpy
dtype
p5
(S'f8'
I0
I1
tRp6
(I3
S'<'
NNNI-1
I-1
I0
tbS'\xd2\x18\xadc\xdc\xb1\x85@'
tRp7
asS'val_loss'
p8
(lp9
g4
(g6
S'I\x9d\x80\xa6\xa4\xba\x85@'
tRp10
as.