(dp1
S'loss'
p2
(lp3
cnumpy.core.multiarray
scalar
p4
(cnumpy
dtype
p5
(S'f8'
I0
I1
tRp6
(I3
S'<'
NNNI-1
I-1
I0
tbS'\xe4\xef\xf1\x1c\x19\xfdo@'
tRp7
asS'val_loss'
p8
(lp9
g4
(g6
S'\x9d\x80&B\xba\x82h@'
tRp10
as.